
temp:     file format elf64-powerpc


Disassembly of section .text:

0000000000001000 <_start>:
starthere():
    1000:	3b c0 00 02 	li      r30,2
    1004:	38 40 00 00 	li      r2,0
    1008:	2c 02 00 01 	cmpwi   r2,1
    100c:	40 82 00 10 	bne-    101c <c2_test_2>
    1010:	48 00 01 40 	b       1150 <fail>

0000000000001014 <c1_test_2>:
c1_test_2():
    1014:	2c 1e 00 00 	cmpwi   r30,0
    1018:	40 82 00 10 	bne-    1028 <c3_test_2>

000000000000101c <c2_test_2>:
c2_test_2():
    101c:	2c 02 00 01 	cmpwi   r2,1
    1020:	40 82 ff f4 	bne+    1014 <c1_test_2>
    1024:	48 00 01 2c 	b       1150 <fail>

0000000000001028 <c3_test_2>:
test_3():
    1028:	3b c0 00 03 	li      r30,3
    102c:	38 40 00 01 	li      r2,1
    1030:	2c 02 00 00 	cmpwi   r2,0
    1034:	40 82 00 10 	bne-    1044 <c2_test_3>
    1038:	48 00 01 18 	b       1150 <fail>

000000000000103c <c1_test_3>:
c1_test_3():
    103c:	2c 1e 00 00 	cmpwi   r30,0
    1040:	40 82 00 10 	bne-    1050 <c3_test_3>

0000000000001044 <c2_test_3>:
c2_test_3():
    1044:	2c 02 00 00 	cmpwi   r2,0
    1048:	40 82 ff f4 	bne+    103c <c1_test_3>
    104c:	48 00 01 04 	b       1150 <fail>

0000000000001050 <c3_test_3>:
test_4():
    1050:	3b c0 00 04 	li      r30,4
    1054:	38 40 ff ff 	li      r2,-1
    1058:	2c 02 00 01 	cmpwi   r2,1
    105c:	40 82 00 10 	bne-    106c <c2_test_4>
    1060:	48 00 00 f0 	b       1150 <fail>

0000000000001064 <c1_test_4>:
c1_test_4():
    1064:	2c 1e 00 00 	cmpwi   r30,0
    1068:	40 82 00 10 	bne-    1078 <c3_test_4>

000000000000106c <c2_test_4>:
c2_test_4():
    106c:	2c 02 00 01 	cmpwi   r2,1
    1070:	40 82 ff f4 	bne+    1064 <c1_test_4>
    1074:	48 00 00 dc 	b       1150 <fail>

0000000000001078 <c3_test_4>:
test_5():
    1078:	3b c0 00 05 	li      r30,5
    107c:	38 40 00 01 	li      r2,1
    1080:	2c 02 ff ff 	cmpwi   r2,-1
    1084:	40 82 00 10 	bne-    1094 <c2_test_5>
    1088:	48 00 00 c8 	b       1150 <fail>

000000000000108c <c1_test_5>:
c1_test_5():
    108c:	2c 1e 00 00 	cmpwi   r30,0
    1090:	40 82 00 10 	bne-    10a0 <c3_test_5>

0000000000001094 <c2_test_5>:
c2_test_5():
    1094:	2c 02 ff ff 	cmpwi   r2,-1
    1098:	40 82 ff f4 	bne+    108c <c1_test_5>
    109c:	48 00 00 b4 	b       1150 <fail>

00000000000010a0 <c3_test_5>:
test_6():
    10a0:	3b c0 00 06 	li      r30,6
    10a4:	38 40 00 00 	li      r2,0
    10a8:	2c 02 00 00 	cmpwi   r2,0
    10ac:	40 82 00 0c 	bne-    10b8 <c1_test_6>
    10b0:	2c 1e 00 00 	cmpwi   r30,0
    10b4:	40 82 00 08 	bne-    10bc <c2_test_6>

00000000000010b8 <c1_test_6>:
c1_test_6():
    10b8:	48 00 00 98 	b       1150 <fail>

00000000000010bc <c2_test_6>:
c2_test_6():
    10bc:	2c 02 00 00 	cmpwi   r2,0
    10c0:	40 82 ff f8 	bne+    10b8 <c1_test_6>

00000000000010c4 <test_7>:
test_7():
    10c4:	3b c0 00 07 	li      r30,7
    10c8:	38 40 00 01 	li      r2,1
    10cc:	2c 02 00 01 	cmpwi   r2,1
    10d0:	40 82 00 0c 	bne-    10dc <c1_test_7>
    10d4:	2c 1e 00 00 	cmpwi   r30,0
    10d8:	40 82 00 08 	bne-    10e0 <c2_test_7>

00000000000010dc <c1_test_7>:
c1_test_7():
    10dc:	48 00 00 74 	b       1150 <fail>

00000000000010e0 <c2_test_7>:
c2_test_7():
    10e0:	2c 02 00 01 	cmpwi   r2,1
    10e4:	40 82 ff f8 	bne+    10dc <c1_test_7>

00000000000010e8 <test_8>:
test_8():
    10e8:	3b c0 00 08 	li      r30,8
    10ec:	38 40 ff ff 	li      r2,-1
    10f0:	2c 02 ff ff 	cmpwi   r2,-1
    10f4:	40 82 00 0c 	bne-    1100 <c1_test_8>
    10f8:	2c 1e 00 00 	cmpwi   r30,0
    10fc:	40 82 00 08 	bne-    1104 <c2_test_8>

0000000000001100 <c1_test_8>:
c1_test_8():
    1100:	48 00 00 50 	b       1150 <fail>

0000000000001104 <c2_test_8>:
c2_test_8():
    1104:	2c 02 ff ff 	cmpwi   r2,-1
    1108:	40 82 ff f8 	bne+    1100 <c1_test_8>

000000000000110c <test_9>:
test_9():
    110c:	3b c0 00 09 	li      r30,9
    1110:	38 40 00 00 	li      r2,0
    1114:	2c 02 00 00 	cmpwi   r2,0
    1118:	40 82 00 38 	bne-    1150 <fail>

000000000000111c <test_10>:
test_10():
    111c:	3b c0 00 0a 	li      r30,10
    1120:	38 40 00 00 	li      r2,0
    1124:	7c 00 02 78 	xor     r0,r0,r0
    1128:	2c 02 00 00 	cmpwi   r2,0
    112c:	40 82 00 24 	bne-    1150 <fail>

0000000000001130 <test_11>:
test_11():
    1130:	3b c0 00 0b 	li      r30,11
    1134:	38 40 00 00 	li      r2,0
    1138:	7c 00 02 78 	xor     r0,r0,r0
    113c:	7c 00 02 78 	xor     r0,r0,r0
    1140:	2c 02 00 00 	cmpwi   r2,0
    1144:	40 82 00 0c 	bne-    1150 <fail>
    1148:	2c 1e 00 00 	cmpwi   r30,0
    114c:	40 82 00 0c 	bne-    1158 <pass>

0000000000001150 <fail>:
fail():
    1150:	3b e0 0f ff 	li      r31,4095
    1154:	4b ff ff fc 	b       1150 <fail>

0000000000001158 <pass>:
pass():
    1158:	3b e0 0a aa 	li      r31,2730
    115c:	4b ff ff fc 	b       1158 <pass>
