
temp:     file format elf64-powerpc


Disassembly of section .text:

0000000000001000 <_start>:
starthere():
    1000:	48 00 03 39 	bl      1338 <getbase>
    1004:	48 00 03 41 	bl      1344 <getbase2>

0000000000001008 <test_2>:
test_2():
    1008:	3b c0 00 02 	li      r30,2
    100c:	38 c0 00 0c 	li      r6,12
    1010:	38 a0 00 00 	li      r5,0
    1014:	7c a5 30 30 	slw     r5,r5,r6
    1018:	38 a5 0f f0 	addi    r5,r5,4080
    101c:	7c a5 30 30 	slw     r5,r5,r6
    1020:	38 a5 00 ff 	addi    r5,r5,255
    1024:	80 97 00 00 	lwz     r4,0(r23)
    1028:	7c a4 28 50 	subf    r5,r4,r5
    102c:	2c 05 00 00 	cmpwi   r5,0
    1030:	40 82 02 f8 	bne-    1328 <fail>

0000000000001034 <test_3>:
test_3():
    1034:	3b c0 00 03 	li      r30,3
    1038:	38 c0 00 0c 	li      r6,12
    103c:	38 a0 00 ff 	li      r5,255
    1040:	7c a5 30 30 	slw     r5,r5,r6
    1044:	38 a5 00 0f 	addi    r5,r5,15
    1048:	7c a5 30 30 	slw     r5,r5,r6
    104c:	38 a5 0f 00 	addi    r5,r5,3840
    1050:	80 97 00 04 	lwz     r4,4(r23)
    1054:	7c a4 28 50 	subf    r5,r4,r5
    1058:	2c 05 00 00 	cmpwi   r5,0
    105c:	40 82 02 cc 	bne-    1328 <fail>

0000000000001060 <test_4>:
test_4():
    1060:	3b c0 00 04 	li      r30,4
    1064:	38 c0 00 0c 	li      r6,12
    1068:	38 a0 00 0f 	li      r5,15
    106c:	7c a5 30 30 	slw     r5,r5,r6
    1070:	38 a5 0f 00 	addi    r5,r5,3840
    1074:	7c a5 30 30 	slw     r5,r5,r6
    1078:	38 a5 0f f0 	addi    r5,r5,4080
    107c:	80 97 00 08 	lwz     r4,8(r23)
    1080:	7c a4 28 50 	subf    r5,r4,r5
    1084:	2c 05 00 00 	cmpwi   r5,0
    1088:	40 82 02 a0 	bne-    1328 <fail>

000000000000108c <test_5>:
test_5():
    108c:	3b c0 00 05 	li      r30,5
    1090:	38 c0 00 0c 	li      r6,12
    1094:	38 a0 00 f0 	li      r5,240
    1098:	7c a5 30 30 	slw     r5,r5,r6
    109c:	38 a5 00 ff 	addi    r5,r5,255
    10a0:	7c a5 30 30 	slw     r5,r5,r6
    10a4:	38 a5 00 0f 	addi    r5,r5,15
    10a8:	80 97 00 0c 	lwz     r4,12(r23)
    10ac:	7c a4 28 50 	subf    r5,r4,r5
    10b0:	2c 05 00 00 	cmpwi   r5,0
    10b4:	40 82 02 74 	bne-    1328 <fail>

00000000000010b8 <test_6>:
test_6():
    10b8:	3b c0 00 06 	li      r30,6
    10bc:	38 c0 00 0c 	li      r6,12
    10c0:	38 a0 00 00 	li      r5,0
    10c4:	7c a5 30 30 	slw     r5,r5,r6
    10c8:	38 a5 0f f0 	addi    r5,r5,4080
    10cc:	7c a5 30 30 	slw     r5,r5,r6
    10d0:	38 a5 00 ff 	addi    r5,r5,255
    10d4:	80 96 ff f0 	lwz     r4,-16(r22)
    10d8:	7c a4 28 50 	subf    r5,r4,r5
    10dc:	2c 05 00 00 	cmpwi   r5,0
    10e0:	40 82 02 48 	bne-    1328 <fail>

00000000000010e4 <test_7>:
test_7():
    10e4:	3b c0 00 07 	li      r30,7
    10e8:	38 c0 00 0c 	li      r6,12
    10ec:	38 a0 00 ff 	li      r5,255
    10f0:	7c a5 30 30 	slw     r5,r5,r6
    10f4:	38 a5 00 0f 	addi    r5,r5,15
    10f8:	7c a5 30 30 	slw     r5,r5,r6
    10fc:	38 a5 0f 00 	addi    r5,r5,3840
    1100:	80 96 ff f4 	lwz     r4,-12(r22)
    1104:	7c a4 28 50 	subf    r5,r4,r5
    1108:	2c 05 00 00 	cmpwi   r5,0
    110c:	40 82 02 1c 	bne-    1328 <fail>

0000000000001110 <test_8>:
test_8():
    1110:	3b c0 00 08 	li      r30,8
    1114:	38 c0 00 0c 	li      r6,12
    1118:	38 a0 00 0f 	li      r5,15
    111c:	7c a5 30 30 	slw     r5,r5,r6
    1120:	38 a5 0f 00 	addi    r5,r5,3840
    1124:	7c a5 30 30 	slw     r5,r5,r6
    1128:	38 a5 0f f0 	addi    r5,r5,4080
    112c:	80 96 ff f8 	lwz     r4,-8(r22)
    1130:	7c a4 28 50 	subf    r5,r4,r5
    1134:	2c 05 00 00 	cmpwi   r5,0
    1138:	40 82 01 f0 	bne-    1328 <fail>

000000000000113c <test_9>:
test_9():
    113c:	3b c0 00 09 	li      r30,9
    1140:	38 c0 00 0c 	li      r6,12
    1144:	38 a0 00 f0 	li      r5,240
    1148:	7c a5 30 30 	slw     r5,r5,r6
    114c:	38 a5 00 ff 	addi    r5,r5,255
    1150:	7c a5 30 30 	slw     r5,r5,r6
    1154:	38 a5 00 0f 	addi    r5,r5,15
    1158:	80 96 ff fc 	lwz     r4,-4(r22)
    115c:	7c a4 28 50 	subf    r5,r4,r5
    1160:	2c 05 00 00 	cmpwi   r5,0
    1164:	40 82 01 c4 	bne-    1328 <fail>
    1168:	3b 17 ff e0 	addi    r24,r23,-32

000000000000116c <test_10>:
test_10():
    116c:	3b c0 00 0a 	li      r30,10
    1170:	38 c0 00 0c 	li      r6,12
    1174:	38 a0 00 00 	li      r5,0
    1178:	7c a5 30 30 	slw     r5,r5,r6
    117c:	38 a5 0f f0 	addi    r5,r5,4080
    1180:	7c a5 30 30 	slw     r5,r5,r6
    1184:	38 a5 00 ff 	addi    r5,r5,255
    1188:	80 98 00 20 	lwz     r4,32(r24)
    118c:	7c a4 28 50 	subf    r5,r4,r5
    1190:	2c 05 00 00 	cmpwi   r5,0
    1194:	40 82 01 94 	bne-    1328 <fail>
    1198:	3b 17 ff fd 	addi    r24,r23,-3

000000000000119c <test_11>:
test_11():
    119c:	3b c0 00 0b 	li      r30,11
    11a0:	38 c0 00 0c 	li      r6,12
    11a4:	38 a0 00 ff 	li      r5,255
    11a8:	7c a5 30 30 	slw     r5,r5,r6
    11ac:	38 a5 00 0f 	addi    r5,r5,15
    11b0:	7c a5 30 30 	slw     r5,r5,r6
    11b4:	38 a5 0f 00 	addi    r5,r5,3840
    11b8:	80 98 00 07 	lwz     r4,7(r24)
    11bc:	7c a4 28 50 	subf    r5,r4,r5
    11c0:	2c 05 00 00 	cmpwi   r5,0
    11c4:	40 82 01 64 	bne-    1328 <fail>

00000000000011c8 <test_12>:
test_12():
    11c8:	3b c0 00 0c 	li      r30,12
    11cc:	38 c0 00 0c 	li      r6,12
    11d0:	38 a0 00 0f 	li      r5,15
    11d4:	7c a5 30 30 	slw     r5,r5,r6
    11d8:	38 a5 0f 00 	addi    r5,r5,3840
    11dc:	7c a5 30 30 	slw     r5,r5,r6
    11e0:	38 a5 0f f0 	addi    r5,r5,4080
    11e4:	80 97 00 08 	lwz     r4,8(r23)
    11e8:	7c a4 28 50 	subf    r5,r4,r5
    11ec:	2c 05 00 00 	cmpwi   r5,0
    11f0:	40 82 01 38 	bne-    1328 <fail>

00000000000011f4 <test_13>:
test_13():
    11f4:	3b c0 00 0d 	li      r30,13
    11f8:	38 c0 00 0c 	li      r6,12
    11fc:	38 a0 00 f0 	li      r5,240
    1200:	7c a5 30 30 	slw     r5,r5,r6
    1204:	38 a5 00 ff 	addi    r5,r5,255
    1208:	7c a5 30 30 	slw     r5,r5,r6
    120c:	38 a5 00 0f 	addi    r5,r5,15
    1210:	80 97 00 0c 	lwz     r4,12(r23)
    1214:	7c 00 02 78 	xor     r0,r0,r0
    1218:	7c a4 28 50 	subf    r5,r4,r5
    121c:	2c 05 00 00 	cmpwi   r5,0
    1220:	40 82 01 08 	bne-    1328 <fail>

0000000000001224 <test_14>:
test_14():
    1224:	3b c0 00 0e 	li      r30,14
    1228:	38 c0 00 0c 	li      r6,12
    122c:	38 a0 00 ff 	li      r5,255
    1230:	7c a5 30 30 	slw     r5,r5,r6
    1234:	38 a5 00 0f 	addi    r5,r5,15
    1238:	7c a5 30 30 	slw     r5,r5,r6
    123c:	38 a5 0f 00 	addi    r5,r5,3840
    1240:	80 97 00 04 	lwz     r4,4(r23)
    1244:	7c 00 02 78 	xor     r0,r0,r0
    1248:	7c 00 02 78 	xor     r0,r0,r0
    124c:	7c a4 28 50 	subf    r5,r4,r5
    1250:	2c 05 00 00 	cmpwi   r5,0
    1254:	40 82 00 d4 	bne-    1328 <fail>

0000000000001258 <test_15>:
test_15():
    1258:	3b c0 00 0f 	li      r30,15
    125c:	38 c0 00 0c 	li      r6,12
    1260:	38 a0 00 0f 	li      r5,15
    1264:	7c a5 30 30 	slw     r5,r5,r6
    1268:	38 a5 0f 00 	addi    r5,r5,3840
    126c:	7c a5 30 30 	slw     r5,r5,r6
    1270:	38 a5 0f f0 	addi    r5,r5,4080
    1274:	3a f7 00 00 	addi    r23,r23,0
    1278:	80 97 00 08 	lwz     r4,8(r23)
    127c:	7c a4 28 50 	subf    r5,r4,r5
    1280:	2c 05 00 00 	cmpwi   r5,0
    1284:	40 82 00 a4 	bne-    1328 <fail>

0000000000001288 <test_16>:
test_16():
    1288:	3b c0 00 10 	li      r30,16
    128c:	38 c0 00 0c 	li      r6,12
    1290:	38 a0 00 f0 	li      r5,240
    1294:	7c a5 30 30 	slw     r5,r5,r6
    1298:	38 a5 00 ff 	addi    r5,r5,255
    129c:	7c a5 30 30 	slw     r5,r5,r6
    12a0:	38 a5 00 0f 	addi    r5,r5,15
    12a4:	3a f7 00 00 	addi    r23,r23,0
    12a8:	7c 00 02 78 	xor     r0,r0,r0
    12ac:	80 97 00 0c 	lwz     r4,12(r23)
    12b0:	7c a4 28 50 	subf    r5,r4,r5
    12b4:	2c 05 00 00 	cmpwi   r5,0
    12b8:	40 82 00 70 	bne-    1328 <fail>

00000000000012bc <test_17>:
test_17():
    12bc:	3b c0 00 11 	li      r30,17
    12c0:	38 c0 00 0c 	li      r6,12
    12c4:	38 a0 00 ff 	li      r5,255
    12c8:	7c a5 30 30 	slw     r5,r5,r6
    12cc:	38 a5 00 0f 	addi    r5,r5,15
    12d0:	7c a5 30 30 	slw     r5,r5,r6
    12d4:	38 a5 0f 00 	addi    r5,r5,3840
    12d8:	3a f7 00 00 	addi    r23,r23,0
    12dc:	7c 00 02 78 	xor     r0,r0,r0
    12e0:	7c 00 02 78 	xor     r0,r0,r0
    12e4:	80 97 00 04 	lwz     r4,4(r23)
    12e8:	7c a4 28 50 	subf    r5,r4,r5
    12ec:	2c 05 00 00 	cmpwi   r5,0
    12f0:	40 82 00 38 	bne-    1328 <fail>

00000000000012f4 <test_18>:
test_18():
    12f4:	3b c0 00 12 	li      r30,18
    12f8:	80 97 00 00 	lwz     r4,0(r23)
    12fc:	38 80 00 02 	li      r4,2
    1300:	2c 04 00 02 	cmpwi   r4,2
    1304:	40 82 00 24 	bne-    1328 <fail>

0000000000001308 <test_19>:
test_19():
    1308:	3b c0 00 12 	li      r30,18
    130c:	80 97 00 00 	lwz     r4,0(r23)
    1310:	7c 00 02 78 	xor     r0,r0,r0
    1314:	38 80 00 02 	li      r4,2
    1318:	2c 04 00 02 	cmpwi   r4,2
    131c:	40 82 00 0c 	bne-    1328 <fail>
    1320:	2c 1e 00 00 	cmpwi   r30,0
    1324:	40 82 00 0c 	bne-    1330 <pass>

0000000000001328 <fail>:
fail():
    1328:	3b e0 0f ff 	li      r31,4095
    132c:	4b ff ff fc 	b       1328 <fail>

0000000000001330 <pass>:
pass():
    1330:	3b e0 0a aa 	li      r31,2730
    1334:	4b ff ff fc 	b       1330 <pass>

0000000000001338 <getbase>:
getbase():
    1338:	7e c8 02 a6 	mflr    r22
    133c:	3a d6 03 5c 	addi    r22,r22,860
    1340:	4e 80 00 20 	blr

0000000000001344 <getbase2>:
getbase2():
    1344:	7e e8 02 a6 	mflr    r23
    1348:	3a f7 03 48 	addi    r23,r23,840
    134c:	4e 80 00 20 	blr

0000000000001350 <tdat>:
tdat():
    1350:	00 ff 00 ff 	.long 0xff00ff
    1354:	ff 00 ff 00 	.long 0xff00ff00
    1358:	0f f0 0f f0 	twi     31,r16,4080
    135c:	f0 0f f0 0f 	.long 0xf00ff00f

0000000000001360 <endtdat>:
endtdat():
    1360:	de ad be ef 	stfdu   f21,-16657(r13)
    1364:	de ad be ef 	stfdu   f21,-16657(r13)
