
temp:     file format elf64-powerpc


Disassembly of section .text:

0000000000001000 <_start>:
starthere():
    1000:	3b c0 00 02 	li      r30,2
    1004:	38 40 7f 00 	li      r2,32512
    1008:	60 44 0f 0f 	ori     r4,r2,3855
    100c:	2c 04 7f 0f 	cmpwi   r4,32527
    1010:	40 82 00 f8 	bne-    1108 <fail>

0000000000001014 <test_3>:
test_3():
    1014:	3b c0 00 03 	li      r30,3
    1018:	38 40 0f f0 	li      r2,4080
    101c:	60 44 70 f0 	ori     r4,r2,28912
    1020:	2c 04 7f f0 	cmpwi   r4,32752
    1024:	40 82 00 e4 	bne-    1108 <fail>

0000000000001028 <test_4>:
test_4():
    1028:	3b c0 00 04 	li      r30,4
    102c:	38 40 00 ff 	li      r2,255
    1030:	60 44 0f 0f 	ori     r4,r2,3855
    1034:	2c 04 0f ff 	cmpwi   r4,4095
    1038:	40 82 00 d0 	bne-    1108 <fail>

000000000000103c <test_5>:
test_5():
    103c:	3b c0 00 05 	li      r30,5
    1040:	38 40 70 0f 	li      r2,28687
    1044:	60 44 70 f0 	ori     r4,r2,28912
    1048:	2c 04 70 ff 	cmpwi   r4,28927
    104c:	40 82 00 bc 	bne-    1108 <fail>

0000000000001050 <test_6>:
test_6():
    1050:	3b c0 00 06 	li      r30,6
    1054:	38 40 7f 00 	li      r2,32512
    1058:	60 42 70 f0 	ori     r2,r2,28912
    105c:	2c 02 7f f0 	cmpwi   r2,32752
    1060:	40 82 00 a8 	bne-    1108 <fail>

0000000000001064 <test_7>:
test_7():
    1064:	3b c0 00 07 	li      r30,7
    1068:	38 40 0f f0 	li      r2,4080
    106c:	60 44 70 f0 	ori     r4,r2,28912
    1070:	38 a4 00 00 	addi    r5,r4,0
    1074:	2c 05 7f f0 	cmpwi   r5,32752
    1078:	40 82 00 90 	bne-    1108 <fail>

000000000000107c <test_8>:
test_8():
    107c:	3b c0 00 08 	li      r30,8
    1080:	38 40 00 ff 	li      r2,255
    1084:	60 44 0f 0f 	ori     r4,r2,3855
    1088:	7c 00 02 78 	xor     r0,r0,r0
    108c:	38 a4 00 00 	addi    r5,r4,0
    1090:	2c 05 0f ff 	cmpwi   r5,4095
    1094:	40 82 00 74 	bne-    1108 <fail>

0000000000001098 <test_9>:
test_9():
    1098:	3b c0 00 09 	li      r30,9
    109c:	38 40 70 0f 	li      r2,28687
    10a0:	60 44 70 f0 	ori     r4,r2,28912
    10a4:	7c 00 02 78 	xor     r0,r0,r0
    10a8:	7c 00 02 78 	xor     r0,r0,r0
    10ac:	38 a4 00 00 	addi    r5,r4,0
    10b0:	2c 05 70 ff 	cmpwi   r5,28927
    10b4:	40 82 00 54 	bne-    1108 <fail>

00000000000010b8 <test_10>:
test_10():
    10b8:	3b c0 00 0a 	li      r30,10
    10bc:	38 40 0f f0 	li      r2,4080
    10c0:	60 44 70 f0 	ori     r4,r2,28912
    10c4:	2c 04 7f f0 	cmpwi   r4,32752
    10c8:	40 82 00 40 	bne-    1108 <fail>

00000000000010cc <test_11>:
test_11():
    10cc:	3b c0 00 0b 	li      r30,11
    10d0:	38 40 00 ff 	li      r2,255
    10d4:	7c 00 02 78 	xor     r0,r0,r0
    10d8:	60 44 0f 0f 	ori     r4,r2,3855
    10dc:	2c 04 0f ff 	cmpwi   r4,4095
    10e0:	40 82 00 28 	bne-    1108 <fail>

00000000000010e4 <test_12>:
test_12():
    10e4:	3b c0 00 0c 	li      r30,12
    10e8:	38 40 70 0f 	li      r2,28687
    10ec:	7c 00 02 78 	xor     r0,r0,r0
    10f0:	7c 00 02 78 	xor     r0,r0,r0
    10f4:	60 44 70 f0 	ori     r4,r2,28912
    10f8:	2c 04 70 ff 	cmpwi   r4,28927
    10fc:	40 82 00 0c 	bne-    1108 <fail>
    1100:	2c 1e 00 00 	cmpwi   r30,0
    1104:	40 82 00 0c 	bne-    1110 <pass>

0000000000001108 <fail>:
fail():
    1108:	3b e0 0f ff 	li      r31,4095
    110c:	4b ff ff fc 	b       1108 <fail>

0000000000001110 <pass>:
pass():
    1110:	3b e0 0a aa 	li      r31,2730
    1114:	4b ff ff fc 	b       1110 <pass>
